target datalayout = "e-m:e-p270:32:32-p271:32:32-p272:64:64-i64:64-i128:128-f80:128-n8:16:32:64-S128"
target triple = "x86_64-pc-linux-gnu"

%struct._object = type { %union.anon, ptr }
%union.anon = type { i64 }
%struct.PyVarObject = type { %struct._object, i64 }
%struct._typeobject = type { %struct.PyVarObject, ptr, i64, i64, ptr, i64, ptr, ptr, ptr, ptr, ptr, ptr, ptr, ptr, ptr, ptr, ptr, ptr, ptr, i64, ptr, ptr, ptr, ptr, i64, ptr, ptr, ptr, ptr, ptr, ptr, ptr, ptr, ptr, i64, ptr, ptr, ptr, ptr, ptr, ptr, ptr, ptr, ptr, ptr, ptr, i32, ptr, ptr, i8, i16 }

@PyExc_TypeError = external global ptr, align 8
@.str.2 = private unnamed_addr constant [27 x i8] c"args must be tuple, got %s\00", align 1
@.str.3 = private unnamed_addr constant [2 x i8] c"O\00", align 1

; Function Attrs: inlinehint nounwind uwtable
define internal i32 @PyType_HasFeature(ptr noundef %0, i64 noundef %1) #3 {
  %3 = alloca ptr, align 8
  %4 = alloca i64, align 8
  %5 = alloca i64, align 8
  store ptr %0, ptr %3, align 8, !tbaa !203
  store i64 %1, ptr %4, align 8, !tbaa !204
  call void @llvm.lifetime.start.p0(i64 8, ptr %5) #12
  %6 = load ptr, ptr %3, align 8, !tbaa !203
  %7 = getelementptr inbounds nuw %struct._typeobject, ptr %6, i32 0, i32 19
  %8 = load i64, ptr %7, align 8, !tbaa !205
  store i64 %8, ptr %5, align 8, !tbaa !204
  %9 = load i64, ptr %5, align 8, !tbaa !204
  %10 = load i64, ptr %4, align 8, !tbaa !204
  %11 = and i64 %9, %10
  %12 = icmp ne i64 %11, 0
  %13 = zext i1 %12 to i32
  call void @llvm.lifetime.end.p0(i64 8, ptr %5) #12
  ret i32 %13
}

; Function Attrs: inlinehint nounwind uwtable
define internal ptr @_Py_TYPE(ptr noundef %0) #3 {
  %2 = alloca ptr, align 8
  store ptr %0, ptr %2, align 8, !tbaa !9
  %3 = load ptr, ptr %2, align 8, !tbaa !9
  %4 = getelementptr inbounds nuw %struct._object, ptr %3, i32 0, i32 1
  %5 = load ptr, ptr %4, align 8, !tbaa !206
  ret ptr %5
}

; Function Attrs: nounwind uwtable
define dso_local i32 @PySys_AuditTuple(ptr noundef %0, ptr noundef %1) #0 {
  %3 = alloca i32, align 4
  %4 = alloca ptr, align 8
  %5 = alloca ptr, align 8
  store ptr %0, ptr %4, align 8, !tbaa !94
  store ptr %1, ptr %5, align 8, !tbaa !9
  %6 = load ptr, ptr %5, align 8, !tbaa !9
  %7 = icmp eq ptr %6, null
  br i1 %7, label %8, label %11

8:                                                ; preds = %2
  %9 = load ptr, ptr %4, align 8, !tbaa !94
  %10 = call i32 (ptr, ptr, ...) @PySys_Audit(ptr noundef %9, ptr noundef null)
  store i32 %10, ptr %3, align 4
  br label %27

11:                                               ; preds = %2
  %12 = load ptr, ptr %5, align 8, !tbaa !9
  %13 = call ptr @_Py_TYPE(ptr noundef %12)
  %14 = call i32 @PyType_HasFeature(ptr noundef %13, i64 noundef 67108864)
  %15 = icmp ne i32 %14, 0
  br i1 %15, label %23, label %16

16:                                               ; preds = %11
  %17 = load ptr, ptr @PyExc_TypeError, align 8, !tbaa !9
  %18 = load ptr, ptr %5, align 8, !tbaa !9
  %19 = call ptr @_Py_TYPE(ptr noundef %18)
  %20 = getelementptr inbounds nuw %struct._typeobject, ptr %19, i32 0, i32 1
  %21 = load ptr, ptr %20, align 8, !tbaa !198
  %22 = call ptr (ptr, ptr, ...) @PyErr_Format(ptr noundef %17, ptr noundef @.str.2, ptr noundef %21)
  store i32 -1, ptr %3, align 4
  br label %27

23:                                               ; preds = %11
  %24 = load ptr, ptr %4, align 8, !tbaa !94
  %25 = load ptr, ptr %5, align 8, !tbaa !9
  %26 = call i32 (ptr, ptr, ...) @PySys_Audit(ptr noundef %24, ptr noundef @.str.3, ptr noundef %25)
  store i32 %26, ptr %3, align 4
  br label %27

27:                                               ; preds = %23, %16, %8
  %28 = load i32, ptr %3, align 4
  ret i32 %28
}