; Function Attrs: nounwind uwtable
define dso_local range(i32 -1, 1) i32 @PySys_AuditTuple(ptr noundef %0, ptr noundef %1) local_unnamed_addr #0 {
  %3 = icmp eq ptr %1, null
  br i1 %3, label %4, label %6

4:                                                ; preds = %2
  %5 = tail call i32 (ptr, ptr, ...) @PySys_Audit(ptr noundef %0, ptr noundef null)
  br label %17

6:                                                ; preds = %2
  %7 = getelementptr i8, ptr %1, i64 8
  %.val = load ptr, ptr %7, align 8, !tbaa !96
  %8 = getelementptr i8, ptr %.val, i64 168
  %.val8 = load i64, ptr %8, align 8, !tbaa !185
  %9 = and i64 %.val8, 67108864
  %.not = icmp eq i64 %9, 0
  br i1 %.not, label %10, label %15

10:                                               ; preds = %6
  %11 = load ptr, ptr @PyExc_TypeError, align 8, !tbaa !93
  %12 = getelementptr inbounds nuw i8, ptr %.val, i64 24
  %13 = load ptr, ptr %12, align 8, !tbaa !197
  %14 = tail call ptr (ptr, ptr, ...) @PyErr_Format(ptr noundef %11, ptr noundef nonnull @.str.2, ptr noundef %13) #15
  br label %17

15:                                               ; preds = %6
  %16 = tail call i32 (ptr, ptr, ...) @PySys_Audit(ptr noundef %0, ptr noundef nonnull @.str.3, ptr noundef nonnull %1)
  br label %17

17:                                               ; preds = %15, %10, %4
  %.0 = phi i32 [ %5, %4 ], [ %16, %15 ], [ -1, %10 ]
  ret i32 %.0
}